target datalayout = "e-m:e-p270:32:32-p271:32:32-p272:64:64-i64:64-i128:128-f80:128-n8:16:32:64-S128"
target triple = "x86_64-pc-linux-gnu"

%class.ShenandoahBarrierSetC1 = type { %class.BarrierSetC1, ptr, ptr, ptr, ptr, ptr }
%class.BarrierSetC1 = type { ptr }
%class.C1ShenandoahPreBarrierCodeGenClosure = type { %class.StubAssemblerCodeGenClosure }
%class.StubAssemblerCodeGenClosure = type { ptr }
%class.C1ShenandoahLoadReferenceBarrierCodeGenClosure = type { %class.StubAssemblerCodeGenClosure, i64 }

@ShenandoahLoadRefBarrier = external global i8, align 1
@.str = private unnamed_addr constant [28 x i8] c"shenandoah_pre_barrier_slow\00", align 1
@.str.4 = private unnamed_addr constant [46 x i8] c"shenandoah_load_reference_barrier_strong_slow\00", align 1
@.str.5 = private unnamed_addr constant [53 x i8] c"shenandoah_load_reference_barrier_strong_native_slow\00", align 1
@.str.6 = private unnamed_addr constant [44 x i8] c"shenandoah_load_reference_barrier_weak_slow\00", align 1
@.str.7 = private unnamed_addr constant [47 x i8] c"shenandoah_load_reference_barrier_phantom_slow\00", align 1
@_ZTV36C1ShenandoahPreBarrierCodeGenClosure = linkonce_odr hidden unnamed_addr constant { [3 x ptr] } { [3 x ptr] [ptr null, ptr null, ptr @_ZN36C1ShenandoahPreBarrierCodeGenClosure13generate_codeEP13StubAssembler] }, comdat, align 8
@_ZTV27StubAssemblerCodeGenClosure = linkonce_odr hidden unnamed_addr constant { [3 x ptr] } { [3 x ptr] [ptr null, ptr null, ptr @__cxa_pure_virtual] }, comdat, align 8
@_ZTV46C1ShenandoahLoadReferenceBarrierCodeGenClosure = linkonce_odr hidden unnamed_addr constant { [3 x ptr] } { [3 x ptr] [ptr null, ptr null, ptr @_ZN46C1ShenandoahLoadReferenceBarrierCodeGenClosure13generate_codeEP13StubAssembler] }, comdat, align 8

; Function Attrs: mustprogress nounwind uwtable
define linkonce_odr hidden void @_ZN27StubAssemblerCodeGenClosureC2Ev(ptr noundef nonnull align 8 dereferenceable(8) %0) unnamed_addr #1 comdat align 2 {
  %2 = alloca ptr, align 8
  store ptr %0, ptr %2, align 8
  %3 = load ptr, ptr %2, align 8
  store ptr getelementptr inbounds inrange(-16, 8) ({ [3 x ptr] }, ptr @_ZTV27StubAssemblerCodeGenClosure, i32 0, i32 0, i32 2), ptr %3, align 8
  ret void
}

; Function Attrs: mustprogress nounwind uwtable
define linkonce_odr hidden void @_ZN46C1ShenandoahLoadReferenceBarrierCodeGenClosureC2Em(ptr noundef nonnull align 8 dereferenceable(16) %0, i64 noundef %1) unnamed_addr #1 comdat align 2 {
  %3 = alloca ptr, align 8
  %4 = alloca i64, align 8
  store ptr %0, ptr %3, align 8
  store i64 %1, ptr %4, align 8
  %5 = load ptr, ptr %3, align 8
  call void @_ZN27StubAssemblerCodeGenClosureC2Ev(ptr noundef nonnull align 8 dereferenceable(8) %5) #6
  store ptr getelementptr inbounds inrange(-16, 8) ({ [3 x ptr] }, ptr @_ZTV46C1ShenandoahLoadReferenceBarrierCodeGenClosure, i32 0, i32 0, i32 2), ptr %5, align 8
  %6 = getelementptr inbounds %class.C1ShenandoahLoadReferenceBarrierCodeGenClosure, ptr %5, i32 0, i32 1
  %7 = load i64, ptr %4, align 8
  store i64 %7, ptr %6, align 8
  ret void
}

; Function Attrs: mustprogress nounwind uwtable
define linkonce_odr hidden void @_ZN36C1ShenandoahPreBarrierCodeGenClosureC2Ev(ptr noundef nonnull align 8 dereferenceable(8) %0) unnamed_addr #1 comdat align 2 {
  %2 = alloca ptr, align 8
  store ptr %0, ptr %2, align 8
  %3 = load ptr, ptr %2, align 8
  call void @_ZN27StubAssemblerCodeGenClosureC2Ev(ptr noundef nonnull align 8 dereferenceable(8) %3) #6
  store ptr getelementptr inbounds inrange(-16, 8) ({ [3 x ptr] }, ptr @_ZTV36C1ShenandoahPreBarrierCodeGenClosure, i32 0, i32 0, i32 2), ptr %3, align 8
  ret void
}

; Function Attrs: mustprogress nounwind uwtable
define hidden void @_ZN22ShenandoahBarrierSetC125generate_c1_runtime_stubsEP10BufferBlob(ptr noundef nonnull align 8 dereferenceable(48) %0, ptr noundef %1) unnamed_addr #1 align 2 {
  %3 = alloca ptr, align 8
  %4 = alloca ptr, align 8
  %5 = alloca %class.C1ShenandoahPreBarrierCodeGenClosure, align 8
  %6 = alloca %class.C1ShenandoahLoadReferenceBarrierCodeGenClosure, align 8
  %7 = alloca %class.C1ShenandoahLoadReferenceBarrierCodeGenClosure, align 8
  %8 = alloca %class.C1ShenandoahLoadReferenceBarrierCodeGenClosure, align 8
  %9 = alloca %class.C1ShenandoahLoadReferenceBarrierCodeGenClosure, align 8
  store ptr %0, ptr %3, align 8
  store ptr %1, ptr %4, align 8
  %10 = load ptr, ptr %3, align 8
  call void @_ZN36C1ShenandoahPreBarrierCodeGenClosureC2Ev(ptr noundef nonnull align 8 dereferenceable(8) %5) #6
  %11 = load ptr, ptr %4, align 8
  %12 = call noundef ptr @_ZN8Runtime113generate_blobEP10BufferBlobiPKcbP27StubAssemblerCodeGenClosure(ptr noundef %11, i32 noundef -1, ptr noundef @.str, i1 noundef zeroext false, ptr noundef %5)
  %13 = getelementptr inbounds %class.ShenandoahBarrierSetC1, ptr %10, i32 0, i32 1
  store ptr %12, ptr %13, align 8
  %14 = load i8, ptr @ShenandoahLoadRefBarrier, align 1
  %15 = trunc i8 %14 to i1
  br i1 %15, label %16, label %29

16:                                               ; preds = %2
  call void @_ZN46C1ShenandoahLoadReferenceBarrierCodeGenClosureC2Em(ptr noundef nonnull align 8 dereferenceable(16) %6, i64 noundef 16384)
  %17 = load ptr, ptr %4, align 8
  %18 = call noundef ptr @_ZN8Runtime113generate_blobEP10BufferBlobiPKcbP27StubAssemblerCodeGenClosure(ptr noundef %17, i32 noundef -1, ptr noundef @.str.4, i1 noundef zeroext false, ptr noundef %6)
  %19 = getelementptr inbounds %class.ShenandoahBarrierSetC1, ptr %10, i32 0, i32 2
  store ptr %18, ptr %19, align 8
  call void @_ZN46C1ShenandoahLoadReferenceBarrierCodeGenClosureC2Em(ptr noundef nonnull align 8 dereferenceable(16) %7, i64 noundef 540672)
  %20 = load ptr, ptr %4, align 8
  %21 = call noundef ptr @_ZN8Runtime113generate_blobEP10BufferBlobiPKcbP27StubAssemblerCodeGenClosure(ptr noundef %20, i32 noundef -1, ptr noundef @.str.5, i1 noundef zeroext false, ptr noundef %7)
  %22 = getelementptr inbounds %class.ShenandoahBarrierSetC1, ptr %10, i32 0, i32 3
  store ptr %21, ptr %22, align 8
  call void @_ZN46C1ShenandoahLoadReferenceBarrierCodeGenClosureC2Em(ptr noundef nonnull align 8 dereferenceable(16) %8, i64 noundef 32768)
  %23 = load ptr, ptr %4, align 8
  %24 = call noundef ptr @_ZN8Runtime113generate_blobEP10BufferBlobiPKcbP27StubAssemblerCodeGenClosure(ptr noundef %23, i32 noundef -1, ptr noundef @.str.6, i1 noundef zeroext false, ptr noundef %8)
  %25 = getelementptr inbounds %class.ShenandoahBarrierSetC1, ptr %10, i32 0, i32 4
  store ptr %24, ptr %25, align 8
  call void @_ZN46C1ShenandoahLoadReferenceBarrierCodeGenClosureC2Em(ptr noundef nonnull align 8 dereferenceable(16) %9, i64 noundef 589824)
  %26 = load ptr, ptr %4, align 8
  %27 = call noundef ptr @_ZN8Runtime113generate_blobEP10BufferBlobiPKcbP27StubAssemblerCodeGenClosure(ptr noundef %26, i32 noundef -1, ptr noundef @.str.7, i1 noundef zeroext false, ptr noundef %9)
  %28 = getelementptr inbounds %class.ShenandoahBarrierSetC1, ptr %10, i32 0, i32 5
  store ptr %27, ptr %28, align 8
  br label %29

29:                                               ; preds = %16, %2
  ret void
}