; Function Attrs: mustprogress nounwind uwtable
define hidden void @_ZN22ShenandoahBarrierSetC125generate_c1_runtime_stubsEP10BufferBlob(ptr nocapture noundef nonnull writeonly align 8 dereferenceable(48) %0, ptr noundef %1) unnamed_addr #0 align 2 {
  %3 = alloca %class.C1ShenandoahPreBarrierCodeGenClosure, align 8
  %4 = alloca %class.C1ShenandoahLoadReferenceBarrierCodeGenClosure, align 8
  %5 = alloca %class.C1ShenandoahLoadReferenceBarrierCodeGenClosure, align 8
  %6 = alloca %class.C1ShenandoahLoadReferenceBarrierCodeGenClosure, align 8
  %7 = alloca %class.C1ShenandoahLoadReferenceBarrierCodeGenClosure, align 8
  store ptr getelementptr inbounds inrange(-16, 8) (i8, ptr @_ZTV36C1ShenandoahPreBarrierCodeGenClosure, i64 16), ptr %3, align 8
  %8 = call noundef ptr @_ZN8Runtime113generate_blobEP10BufferBlobiPKcbP27StubAssemblerCodeGenClosure(ptr noundef %1, i32 noundef -1, ptr noundef nonnull @.str, i1 noundef zeroext false, ptr noundef nonnull %3) #8
  %9 = getelementptr inbounds i8, ptr %0, i64 8
  store ptr %8, ptr %9, align 8
  %10 = load i8, ptr @ShenandoahLoadRefBarrier, align 1
  %11 = trunc i8 %10 to i1
  br i1 %11, label %12, label %25

12:                                               ; preds = %2
  store ptr getelementptr inbounds inrange(-16, 8) (i8, ptr @_ZTV46C1ShenandoahLoadReferenceBarrierCodeGenClosure, i64 16), ptr %4, align 8
  %13 = getelementptr inbounds i8, ptr %4, i64 8
  store i64 16384, ptr %13, align 8
  %14 = call noundef ptr @_ZN8Runtime113generate_blobEP10BufferBlobiPKcbP27StubAssemblerCodeGenClosure(ptr noundef %1, i32 noundef -1, ptr noundef nonnull @.str.4, i1 noundef zeroext false, ptr noundef nonnull %4) #8
  %15 = getelementptr inbounds i8, ptr %0, i64 16
  store ptr %14, ptr %15, align 8
  store ptr getelementptr inbounds inrange(-16, 8) (i8, ptr @_ZTV46C1ShenandoahLoadReferenceBarrierCodeGenClosure, i64 16), ptr %5, align 8
  %16 = getelementptr inbounds i8, ptr %5, i64 8
  store i64 540672, ptr %16, align 8
  %17 = call noundef ptr @_ZN8Runtime113generate_blobEP10BufferBlobiPKcbP27StubAssemblerCodeGenClosure(ptr noundef %1, i32 noundef -1, ptr noundef nonnull @.str.5, i1 noundef zeroext false, ptr noundef nonnull %5) #8
  %18 = getelementptr inbounds i8, ptr %0, i64 24
  store ptr %17, ptr %18, align 8
  store ptr getelementptr inbounds inrange(-16, 8) (i8, ptr @_ZTV46C1ShenandoahLoadReferenceBarrierCodeGenClosure, i64 16), ptr %6, align 8
  %19 = getelementptr inbounds i8, ptr %6, i64 8
  store i64 32768, ptr %19, align 8
  %20 = call noundef ptr @_ZN8Runtime113generate_blobEP10BufferBlobiPKcbP27StubAssemblerCodeGenClosure(ptr noundef %1, i32 noundef -1, ptr noundef nonnull @.str.6, i1 noundef zeroext false, ptr noundef nonnull %6) #8
  %21 = getelementptr inbounds i8, ptr %0, i64 32
  store ptr %20, ptr %21, align 8
  store ptr getelementptr inbounds inrange(-16, 8) (i8, ptr @_ZTV46C1ShenandoahLoadReferenceBarrierCodeGenClosure, i64 16), ptr %7, align 8
  %22 = getelementptr inbounds i8, ptr %7, i64 8
  store i64 589824, ptr %22, align 8
  %23 = call noundef ptr @_ZN8Runtime113generate_blobEP10BufferBlobiPKcbP27StubAssemblerCodeGenClosure(ptr noundef %1, i32 noundef -1, ptr noundef nonnull @.str.7, i1 noundef zeroext false, ptr noundef nonnull %7) #8
  %24 = getelementptr inbounds i8, ptr %0, i64 40
  store ptr %23, ptr %24, align 8
  br label %25

25:                                               ; preds = %12, %2
  ret void
}